; Function Attrs: nounwind uwtable
define zeroext i8 @l_Array_qsort_sort___at_Lean_Server_FileWorker_computeDeltaLspSemanticTokens___spec__2___lambda__1(ptr noundef %0, ptr noundef %1) local_unnamed_addr #0 {
  %3 = getelementptr inbounds nuw i8, ptr %0, i64 8
  %4 = load ptr, ptr %3, align 8, !tbaa !11
  %5 = ptrtoint ptr %4 to i64
  %6 = and i64 %5, 1
  %.not = icmp eq i64 %6, 0
  br i1 %.not, label %7, label %lean_inc.exit46

7:                                                ; preds = %2
  %.val.i = load i32, ptr %4, align 4, !tbaa !8
  %8 = icmp sgt i32 %.val.i, 0
  br i1 %8, label %9, label %11, !prof !14

9:                                                ; preds = %7
  %10 = add nuw i32 %.val.i, 1
  store i32 %10, ptr %4, align 4, !tbaa !8
  br label %lean_inc.exit46

11:                                               ; preds = %7
  %.not.i65 = icmp eq i32 %.val.i, 0
  br i1 %.not.i65, label %lean_inc.exit46, label %12

12:                                               ; preds = %11
  tail call void @lean_inc_ref_cold(ptr noundef nonnull %4) #7
  br label %lean_inc.exit46

lean_inc.exit46:                                  ; preds = %12, %11, %9, %2
  %13 = getelementptr inbounds nuw i8, ptr %0, i64 16
  %14 = load ptr, ptr %13, align 8, !tbaa !11
  %15 = ptrtoint ptr %14 to i64
  %16 = and i64 %15, 1
  %.not81 = icmp eq i64 %16, 0
  br i1 %.not81, label %17, label %lean_inc.exit45

17:                                               ; preds = %lean_inc.exit46
  %.val.i66 = load i32, ptr %14, align 4, !tbaa !8
  %18 = icmp sgt i32 %.val.i66, 0
  br i1 %18, label %19, label %21, !prof !14

19:                                               ; preds = %17
  %20 = add nuw i32 %.val.i66, 1
  store i32 %20, ptr %14, align 4, !tbaa !8
  br label %lean_inc.exit45

21:                                               ; preds = %17
  %.not.i67 = icmp eq i32 %.val.i66, 0
  br i1 %.not.i67, label %lean_inc.exit45, label %22

22:                                               ; preds = %21
  tail call void @lean_inc_ref_cold(ptr noundef nonnull %14) #7
  br label %lean_inc.exit45

lean_inc.exit45:                                  ; preds = %22, %21, %19, %lean_inc.exit46
  %23 = ptrtoint ptr %0 to i64
  %24 = and i64 %23, 1
  %.not82 = icmp eq i64 %24, 0
  br i1 %.not82, label %25, label %lean_dec.exit41

25:                                               ; preds = %lean_inc.exit45
  %26 = load i32, ptr %0, align 4, !tbaa !8
  %27 = icmp sgt i32 %26, 1
  br i1 %27, label %28, label %30, !prof !14

28:                                               ; preds = %25
  %29 = add nsw i32 %26, -1
  store i32 %29, ptr %0, align 4, !tbaa !8
  br label %lean_dec.exit41

30:                                               ; preds = %25
  %.not.i = icmp eq i32 %26, 0
  br i1 %.not.i, label %lean_dec.exit41, label %31

31:                                               ; preds = %30
  tail call void @lean_dec_ref_cold(ptr noundef nonnull %0) #7
  br label %lean_dec.exit41

lean_dec.exit41:                                  ; preds = %31, %30, %28, %lean_inc.exit45
  %32 = getelementptr inbounds nuw i8, ptr %1, i64 8
  %33 = load ptr, ptr %32, align 8, !tbaa !11
  %34 = ptrtoint ptr %33 to i64
  %35 = and i64 %34, 1
  %.not83 = icmp eq i64 %35, 0
  br i1 %.not83, label %36, label %lean_inc.exit44

36:                                               ; preds = %lean_dec.exit41
  %.val.i69 = load i32, ptr %33, align 4, !tbaa !8
  %37 = icmp sgt i32 %.val.i69, 0
  br i1 %37, label %38, label %40, !prof !14

38:                                               ; preds = %36
  %39 = add nuw i32 %.val.i69, 1
  store i32 %39, ptr %33, align 4, !tbaa !8
  br label %lean_inc.exit44

40:                                               ; preds = %36
  %.not.i70 = icmp eq i32 %.val.i69, 0
  br i1 %.not.i70, label %lean_inc.exit44, label %41

41:                                               ; preds = %40
  tail call void @lean_inc_ref_cold(ptr noundef nonnull %33) #7
  br label %lean_inc.exit44

lean_inc.exit44:                                  ; preds = %41, %40, %38, %lean_dec.exit41
  %42 = getelementptr inbounds nuw i8, ptr %1, i64 16
  %43 = load ptr, ptr %42, align 8, !tbaa !11
  %44 = ptrtoint ptr %43 to i64
  %45 = and i64 %44, 1
  %.not84 = icmp eq i64 %45, 0
  br i1 %.not84, label %46, label %lean_inc.exit43

46:                                               ; preds = %lean_inc.exit44
  %.val.i72 = load i32, ptr %43, align 4, !tbaa !8
  %47 = icmp sgt i32 %.val.i72, 0
  br i1 %47, label %48, label %50, !prof !14

48:                                               ; preds = %46
  %49 = add nuw i32 %.val.i72, 1
  store i32 %49, ptr %43, align 4, !tbaa !8
  br label %lean_inc.exit43

50:                                               ; preds = %46
  %.not.i73 = icmp eq i32 %.val.i72, 0
  br i1 %.not.i73, label %lean_inc.exit43, label %51

51:                                               ; preds = %50
  tail call void @lean_inc_ref_cold(ptr noundef nonnull %43) #7
  br label %lean_inc.exit43

lean_inc.exit43:                                  ; preds = %51, %50, %48, %lean_inc.exit44
  %52 = ptrtoint ptr %1 to i64
  %53 = and i64 %52, 1
  %.not85 = icmp eq i64 %53, 0
  br i1 %.not85, label %54, label %lean_dec.exit40

54:                                               ; preds = %lean_inc.exit43
  %55 = load i32, ptr %1, align 4, !tbaa !8
  %56 = icmp sgt i32 %55, 1
  br i1 %56, label %57, label %59, !prof !14

57:                                               ; preds = %54
  %58 = add nsw i32 %55, -1
  store i32 %58, ptr %1, align 4, !tbaa !8
  br label %lean_dec.exit40

59:                                               ; preds = %54
  %.not.i47 = icmp eq i32 %55, 0
  br i1 %.not.i47, label %lean_dec.exit40, label %60

60:                                               ; preds = %59
  tail call void @lean_dec_ref_cold(ptr noundef nonnull %1) #7
  br label %lean_dec.exit40

lean_dec.exit40:                                  ; preds = %60, %59, %57, %lean_inc.exit43
  %61 = load ptr, ptr @l_Lean_Lsp_instOrdPosition, align 8, !tbaa !11
  br i1 %.not83, label %62, label %lean_inc.exit42

62:                                               ; preds = %lean_dec.exit40
  %.val.i75 = load i32, ptr %33, align 4, !tbaa !8
  %63 = icmp sgt i32 %.val.i75, 0
  br i1 %63, label %64, label %66, !prof !14

64:                                               ; preds = %62
  %65 = add nuw i32 %.val.i75, 1
  store i32 %65, ptr %33, align 4, !tbaa !8
  br label %lean_inc.exit42

66:                                               ; preds = %62
  %.not.i76 = icmp eq i32 %.val.i75, 0
  br i1 %.not.i76, label %lean_inc.exit42, label %67

67:                                               ; preds = %66
  tail call void @lean_inc_ref_cold(ptr noundef nonnull %33) #7
  br label %lean_inc.exit42

lean_inc.exit42:                                  ; preds = %67, %66, %64, %lean_dec.exit40
  br i1 %.not, label %68, label %lean_inc.exit

68:                                               ; preds = %lean_inc.exit42
  %.val.i78 = load i32, ptr %4, align 4, !tbaa !8
  %69 = icmp sgt i32 %.val.i78, 0
  br i1 %69, label %70, label %72, !prof !14

70:                                               ; preds = %68
  %71 = add nuw i32 %.val.i78, 1
  store i32 %71, ptr %4, align 4, !tbaa !8
  br label %lean_inc.exit

72:                                               ; preds = %68
  %.not.i79 = icmp eq i32 %.val.i78, 0
  br i1 %.not.i79, label %lean_inc.exit, label %73

73:                                               ; preds = %72
  tail call void @lean_inc_ref_cold(ptr noundef nonnull %4) #7
  br label %lean_inc.exit

lean_inc.exit:                                    ; preds = %73, %72, %70, %lean_inc.exit42
  %74 = tail call zeroext i8 @l_Ord_instDecidableRelLt___rarg(ptr noundef %61, ptr noundef %4, ptr noundef %33) #7
  %75 = icmp eq i8 %74, 0
  br i1 %75, label %76, label %110

76:                                               ; preds = %lean_inc.exit
  %77 = tail call zeroext i8 @l_Lean_Lsp_beqPosition____x40_Lean_Data_Lsp_Basic___hyg_41_(ptr noundef %4, ptr noundef %33) #7
  br i1 %.not83, label %78, label %lean_dec.exit39

78:                                               ; preds = %76
  %79 = load i32, ptr %33, align 4, !tbaa !8
  %80 = icmp sgt i32 %79, 1
  br i1 %80, label %81, label %83, !prof !14

81:                                               ; preds = %78
  %82 = add nsw i32 %79, -1
  store i32 %82, ptr %33, align 4, !tbaa !8
  br label %lean_dec.exit39

83:                                               ; preds = %78
  %.not.i49 = icmp eq i32 %79, 0
  br i1 %.not.i49, label %lean_dec.exit39, label %84

84:                                               ; preds = %83
  tail call void @lean_dec_ref_cold(ptr noundef nonnull %33) #7
  br label %lean_dec.exit39

lean_dec.exit39:                                  ; preds = %84, %83, %81, %76
  br i1 %.not, label %85, label %lean_dec.exit38

85:                                               ; preds = %lean_dec.exit39
  %86 = load i32, ptr %4, align 4, !tbaa !8
  %87 = icmp sgt i32 %86, 1
  br i1 %87, label %88, label %90, !prof !14

88:                                               ; preds = %85
  %89 = add nsw i32 %86, -1
  store i32 %89, ptr %4, align 4, !tbaa !8
  br label %lean_dec.exit38

90:                                               ; preds = %85
  %.not.i51 = icmp eq i32 %86, 0
  br i1 %.not.i51, label %lean_dec.exit38, label %91

91:                                               ; preds = %90
  tail call void @lean_dec_ref_cold(ptr noundef nonnull %4) #7
  br label %lean_dec.exit38

lean_dec.exit38:                                  ; preds = %91, %90, %88, %lean_dec.exit39
  %92 = icmp eq i8 %77, 0
  br i1 %92, label %93, label %108

93:                                               ; preds = %lean_dec.exit38
  br i1 %.not84, label %94, label %lean_dec.exit37

94:                                               ; preds = %93
  %95 = load i32, ptr %43, align 4, !tbaa !8
  %96 = icmp sgt i32 %95, 1
  br i1 %96, label %97, label %99, !prof !14

97:                                               ; preds = %94
  %98 = add nsw i32 %95, -1
  store i32 %98, ptr %43, align 4, !tbaa !8
  br label %lean_dec.exit37

99:                                               ; preds = %94
  %.not.i53 = icmp eq i32 %95, 0
  br i1 %.not.i53, label %lean_dec.exit37, label %100

100:                                              ; preds = %99
  tail call void @lean_dec_ref_cold(ptr noundef nonnull %43) #7
  br label %lean_dec.exit37

lean_dec.exit37:                                  ; preds = %100, %99, %97, %93
  br i1 %.not81, label %101, label %lean_dec.exit36

101:                                              ; preds = %lean_dec.exit37
  %102 = load i32, ptr %14, align 4, !tbaa !8
  %103 = icmp sgt i32 %102, 1
  br i1 %103, label %104, label %106, !prof !14

104:                                              ; preds = %101
  %105 = add nsw i32 %102, -1
  store i32 %105, ptr %14, align 4, !tbaa !8
  br label %lean_dec.exit36

106:                                              ; preds = %101
  %.not.i55 = icmp eq i32 %102, 0
  br i1 %.not.i55, label %lean_dec.exit36, label %107

107:                                              ; preds = %106
  tail call void @lean_dec_ref_cold(ptr noundef nonnull %14) #7
  br label %lean_dec.exit36

108:                                              ; preds = %lean_dec.exit38
  %109 = tail call zeroext i8 @l_Ord_instDecidableRelLe___rarg(ptr noundef %61, ptr noundef %14, ptr noundef %43) #7
  br label %lean_dec.exit36

110:                                              ; preds = %lean_inc.exit
  br i1 %.not84, label %111, label %lean_dec.exit35

111:                                              ; preds = %110
  %112 = load i32, ptr %43, align 4, !tbaa !8
  %113 = icmp sgt i32 %112, 1
  br i1 %113, label %114, label %116, !prof !14

114:                                              ; preds = %111
  %115 = add nsw i32 %112, -1
  store i32 %115, ptr %43, align 4, !tbaa !8
  br label %lean_dec.exit35

116:                                              ; preds = %111
  %.not.i57 = icmp eq i32 %112, 0
  br i1 %.not.i57, label %lean_dec.exit35, label %117

117:                                              ; preds = %116
  tail call void @lean_dec_ref_cold(ptr noundef nonnull %43) #7
  br label %lean_dec.exit35

lean_dec.exit35:                                  ; preds = %117, %116, %114, %110
  br i1 %.not83, label %118, label %lean_dec.exit34

118:                                              ; preds = %lean_dec.exit35
  %119 = load i32, ptr %33, align 4, !tbaa !8
  %120 = icmp sgt i32 %119, 1
  br i1 %120, label %121, label %123, !prof !14

121:                                              ; preds = %118
  %122 = add nsw i32 %119, -1
  store i32 %122, ptr %33, align 4, !tbaa !8
  br label %lean_dec.exit34

123:                                              ; preds = %118
  %.not.i59 = icmp eq i32 %119, 0
  br i1 %.not.i59, label %lean_dec.exit34, label %124

124:                                              ; preds = %123
  tail call void @lean_dec_ref_cold(ptr noundef nonnull %33) #7
  br label %lean_dec.exit34

lean_dec.exit34:                                  ; preds = %124, %123, %121, %lean_dec.exit35
  br i1 %.not81, label %125, label %lean_dec.exit33

125:                                              ; preds = %lean_dec.exit34
  %126 = load i32, ptr %14, align 4, !tbaa !8
  %127 = icmp sgt i32 %126, 1
  br i1 %127, label %128, label %130, !prof !14

128:                                              ; preds = %125
  %129 = add nsw i32 %126, -1
  store i32 %129, ptr %14, align 4, !tbaa !8
  br label %lean_dec.exit33

130:                                              ; preds = %125
  %.not.i61 = icmp eq i32 %126, 0
  br i1 %.not.i61, label %lean_dec.exit33, label %131

131:                                              ; preds = %130
  tail call void @lean_dec_ref_cold(ptr noundef nonnull %14) #7
  br label %lean_dec.exit33

lean_dec.exit33:                                  ; preds = %131, %130, %128, %lean_dec.exit34
  br i1 %.not, label %132, label %lean_dec.exit36

132:                                              ; preds = %lean_dec.exit33
  %133 = load i32, ptr %4, align 4, !tbaa !8
  %134 = icmp sgt i32 %133, 1
  br i1 %134, label %135, label %137, !prof !14

135:                                              ; preds = %132
  %136 = add nsw i32 %133, -1
  store i32 %136, ptr %4, align 4, !tbaa !8
  br label %lean_dec.exit36

137:                                              ; preds = %132
  %.not.i63 = icmp eq i32 %133, 0
  br i1 %.not.i63, label %lean_dec.exit36, label %138

138:                                              ; preds = %137
  tail call void @lean_dec_ref_cold(ptr noundef nonnull %4) #7
  br label %lean_dec.exit36

lean_dec.exit36:                                  ; preds = %lean_dec.exit33, %135, %137, %138, %lean_dec.exit37, %104, %106, %107, %108
  %.1 = phi i8 [ %109, %108 ], [ 0, %107 ], [ 0, %106 ], [ 0, %104 ], [ 0, %lean_dec.exit37 ], [ 1, %138 ], [ 1, %137 ], [ 1, %135 ], [ 1, %lean_dec.exit33 ]
  ret i8 %.1
}